; Function Attrs: nounwind uwtable
define internal i32 @test_des_weak_keys(i32 noundef %0) #0 {
  %2 = sext i32 %0 to i64
  %3 = getelementptr inbounds [17 x %struct.anon], ptr @weak_keys, i64 0, i64 %2
  %4 = tail call i32 @DES_is_weak_key(ptr noundef nonnull %3) #6
  %5 = getelementptr inbounds nuw i8, ptr %3, i64 8
  %6 = load i32, ptr %5, align 4, !tbaa !16
  %7 = tail call i32 @test_int_eq(ptr noundef nonnull @.str.24, i32 noundef 823, ptr noundef nonnull @.str.103, ptr noundef nonnull @.str.104, i32 noundef %4, i32 noundef %6) #6
  ret i32 %7
}